target datalayout = "e-m:e-p270:32:32-p271:32:32-p272:64:64-i64:64-i128:128-f80:128-n8:16:32:64-S128"
target triple = "x86_64-pc-linux-gnu"

; Function Attrs: nounwind uwtable
define i32 @stbds_is_key_equal(ptr noundef %0, i64 noundef %1, ptr noundef %2, i64 noundef %3, i64 noundef %4, i32 noundef %5, i64 noundef %6) #0 {
  %8 = alloca i32, align 4
  %9 = alloca ptr, align 8
  %10 = alloca i64, align 8
  %11 = alloca ptr, align 8
  %12 = alloca i64, align 8
  %13 = alloca i64, align 8
  %14 = alloca i32, align 4
  %15 = alloca i64, align 8
  store ptr %0, ptr %9, align 8, !tbaa !3
  store i64 %1, ptr %10, align 8, !tbaa !7
  store ptr %2, ptr %11, align 8, !tbaa !3
  store i64 %3, ptr %12, align 8, !tbaa !7
  store i64 %4, ptr %13, align 8, !tbaa !7
  store i32 %5, ptr %14, align 4, !tbaa !45
  store i64 %6, ptr %15, align 8, !tbaa !7
  %16 = load i32, ptr %14, align 4, !tbaa !45
  %17 = icmp sge i32 %16, 1
  br i1 %17, label %18, label %31

18:                                               ; preds = %7
  %19 = load ptr, ptr %11, align 8, !tbaa !3
  %20 = load ptr, ptr %9, align 8, !tbaa !3
  %21 = load i64, ptr %10, align 8, !tbaa !7
  %22 = load i64, ptr %15, align 8, !tbaa !7
  %23 = mul i64 %21, %22
  %24 = getelementptr inbounds nuw i8, ptr %20, i64 %23
  %25 = load i64, ptr %13, align 8, !tbaa !7
  %26 = getelementptr inbounds nuw i8, ptr %24, i64 %25
  %27 = load ptr, ptr %26, align 8, !tbaa !39
  %28 = call i32 @strcmp(ptr noundef %19, ptr noundef %27) #9
  %29 = icmp eq i32 0, %28
  %30 = zext i1 %29 to i32
  store i32 %30, ptr %8, align 4
  br label %44

31:                                               ; preds = %7
  %32 = load ptr, ptr %11, align 8, !tbaa !3
  %33 = load ptr, ptr %9, align 8, !tbaa !3
  %34 = load i64, ptr %10, align 8, !tbaa !7
  %35 = load i64, ptr %15, align 8, !tbaa !7
  %36 = mul i64 %34, %35
  %37 = getelementptr inbounds nuw i8, ptr %33, i64 %36
  %38 = load i64, ptr %13, align 8, !tbaa !7
  %39 = getelementptr inbounds nuw i8, ptr %37, i64 %38
  %40 = load i64, ptr %12, align 8, !tbaa !7
  %41 = call i32 @memcmp(ptr noundef %32, ptr noundef %39, i64 noundef %40) #9
  %42 = icmp eq i32 0, %41
  %43 = zext i1 %42 to i32
  store i32 %43, ptr %8, align 4
  br label %44

44:                                               ; preds = %31, %18
  %45 = load i32, ptr %8, align 4
  ret i32 %45
}