; Function Attrs: mustprogress nofree nounwind willreturn memory(read, inaccessiblemem: none) uwtable
define range(i32 0, 2) i32 @stbds_is_key_equal(ptr noundef readonly captures(none) %0, i64 noundef %1, ptr noundef readonly captures(none) %2, i64 noundef %3, i64 noundef %4, i32 noundef %5, i64 noundef %6) local_unnamed_addr #11 {
  %8 = icmp sgt i32 %5, 0
  %9 = mul i64 %6, %1
  %10 = getelementptr inbounds nuw i8, ptr %0, i64 %9
  %11 = getelementptr inbounds nuw i8, ptr %10, i64 %4
  br i1 %8, label %12, label %15

12:                                               ; preds = %7
  %13 = load ptr, ptr %11, align 8, !tbaa !36
  %14 = tail call i32 @strcmp(ptr noundef nonnull dereferenceable(1) %2, ptr noundef nonnull dereferenceable(1) %13) #22
  br label %17

15:                                               ; preds = %7
  %16 = tail call i32 @memcmp(ptr noundef %2, ptr noundef %11, i64 noundef %3) #22
  br label %17

17:                                               ; preds = %15, %12
  %.0.in.in = phi i32 [ %14, %12 ], [ %16, %15 ]
  %.0.in = icmp eq i32 %.0.in.in, 0
  %.0 = zext i1 %.0.in to i32
  ret i32 %.0
}